target datalayout = "e-m:e-p270:32:32-p271:32:32-p272:64:64-i64:64-i128:128-f80:128-n8:16:32:64-S128"
target triple = "x86_64-pc-linux-gnu"

%struct.Elf64_Shdr = type { i32, i32, i64, i64, i64, i64, i32, i32, i64, i64 }
%class.MarkedFileReader = type { %class.FileReader, i64 }
%class.FileReader = type { ptr, ptr }
%"class.DwarfFile::MarkedDwarfFileReader" = type { %class.MarkedFileReader, i64, i64 }
%"class.DwarfFile::CompilationUnit" = type { ptr, %"class.DwarfFile::MarkedDwarfFileReader", %"struct.DwarfFile::CompilationUnit::CompilationUnitHeader", i32, i32 }
%"struct.DwarfFile::CompilationUnit::CompilationUnitHeader" = type { i32, i16, i32, i8 }

@.str.7 = private unnamed_addr constant [12 x i8] c".debug_info\00", align 1

; Function Attrs: mustprogress nounwind uwtable
define hidden noundef zeroext i1 @_ZN10FileReader4readEPvm(ptr noundef nonnull align 8 dereferenceable(16) %0, ptr noundef %1, i64 noundef %2) #1 align 2 {
  %4 = alloca ptr, align 8
  %5 = alloca ptr, align 8
  %6 = alloca i64, align 8
  store ptr %0, ptr %4, align 8
  store ptr %1, ptr %5, align 8
  store i64 %2, ptr %6, align 8
  %7 = load ptr, ptr %4, align 8
  %8 = load ptr, ptr %5, align 8
  %9 = load i64, ptr %6, align 8
  %10 = getelementptr inbounds %class.FileReader, ptr %7, i32 0, i32 1
  %11 = load ptr, ptr %10, align 8
  %12 = call i64 @fread(ptr noundef %8, i64 noundef %9, i64 noundef 1, ptr noundef %11)
  %13 = icmp eq i64 %12, 1
  ret i1 %13
}

; Function Attrs: mustprogress nounwind uwtable
define hidden noundef zeroext i1 @_ZN10FileReader12set_positionEl(ptr noundef nonnull align 8 dereferenceable(16) %0, i64 noundef %1) unnamed_addr #1 align 2 {
  %3 = alloca ptr, align 8
  %4 = alloca i64, align 8
  store ptr %0, ptr %3, align 8
  store i64 %1, ptr %4, align 8
  %5 = load ptr, ptr %3, align 8
  %6 = getelementptr inbounds %class.FileReader, ptr %5, i32 0, i32 1
  %7 = load ptr, ptr %6, align 8
  %8 = load i64, ptr %4, align 8
  %9 = call i32 @fseek(ptr noundef %7, i64 noundef %8, i32 noundef 0)
  %10 = icmp eq i32 %9, 0
  ret i1 %10
}

; Function Attrs: mustprogress nounwind uwtable
define linkonce_odr hidden void @_ZN9DwarfFile21MarkedDwarfFileReader11set_max_posEl(ptr noundef nonnull align 8 dereferenceable(40) %0, i64 noundef %1) #1 comdat align 2 {
  %3 = alloca ptr, align 8
  %4 = alloca i64, align 8
  store ptr %0, ptr %3, align 8
  store i64 %1, ptr %4, align 8
  %5 = load ptr, ptr %3, align 8
  %6 = load i64, ptr %4, align 8
  %7 = getelementptr inbounds %"class.DwarfFile::MarkedDwarfFileReader", ptr %5, i32 0, i32 2
  store i64 %6, ptr %7, align 8
  ret void
}

; Function Attrs: mustprogress nounwind uwtable
define linkonce_odr hidden noundef i64 @_ZNK9DwarfFile21MarkedDwarfFileReader12get_positionEv(ptr noundef nonnull align 8 dereferenceable(40) %0) #1 comdat align 2 {
  %2 = alloca ptr, align 8
  store ptr %0, ptr %2, align 8
  %3 = load ptr, ptr %2, align 8
  %4 = getelementptr inbounds %"class.DwarfFile::MarkedDwarfFileReader", ptr %3, i32 0, i32 1
  %5 = load i64, ptr %4, align 8
  ret i64 %5
}

; Function Attrs: mustprogress nounwind uwtable
define hidden noundef zeroext i1 @_ZN9DwarfFile21MarkedDwarfFileReader9read_byteEPv(ptr noundef nonnull align 8 dereferenceable(40) %0, ptr noundef %1) #1 align 2 {
  %3 = alloca ptr, align 8
  %4 = alloca ptr, align 8
  store ptr %0, ptr %3, align 8
  store ptr %1, ptr %4, align 8
  %5 = load ptr, ptr %3, align 8
  %6 = getelementptr inbounds %"class.DwarfFile::MarkedDwarfFileReader", ptr %5, i32 0, i32 1
  %7 = load i64, ptr %6, align 8
  %8 = add nsw i64 %7, 1
  store i64 %8, ptr %6, align 8
  %9 = load ptr, ptr %4, align 8
  %10 = call noundef zeroext i1 @_ZN10FileReader4readEPvm(ptr noundef nonnull align 8 dereferenceable(16) %5, ptr noundef %9, i64 noundef 1)
  ret i1 %10
}

; Function Attrs: mustprogress nounwind uwtable
define hidden noundef zeroext i1 @_ZN9DwarfFile21MarkedDwarfFileReader9read_wordEPt(ptr noundef nonnull align 8 dereferenceable(40) %0, ptr noundef %1) #1 align 2 {
  %3 = alloca ptr, align 8
  %4 = alloca ptr, align 8
  store ptr %0, ptr %3, align 8
  store ptr %1, ptr %4, align 8
  %5 = load ptr, ptr %3, align 8
  %6 = getelementptr inbounds %"class.DwarfFile::MarkedDwarfFileReader", ptr %5, i32 0, i32 1
  %7 = load i64, ptr %6, align 8
  %8 = add nsw i64 %7, 2
  store i64 %8, ptr %6, align 8
  %9 = load ptr, ptr %4, align 8
  %10 = call noundef zeroext i1 @_ZN10FileReader4readEPvm(ptr noundef nonnull align 8 dereferenceable(16) %5, ptr noundef %9, i64 noundef 2)
  ret i1 %10
}

; Function Attrs: mustprogress nounwind uwtable
define hidden noundef zeroext i1 @_ZN9DwarfFile21MarkedDwarfFileReader10read_dwordEPj(ptr noundef nonnull align 8 dereferenceable(40) %0, ptr noundef %1) #1 align 2 {
  %3 = alloca ptr, align 8
  %4 = alloca ptr, align 8
  store ptr %0, ptr %3, align 8
  store ptr %1, ptr %4, align 8
  %5 = load ptr, ptr %3, align 8
  %6 = getelementptr inbounds %"class.DwarfFile::MarkedDwarfFileReader", ptr %5, i32 0, i32 1
  %7 = load i64, ptr %6, align 8
  %8 = add nsw i64 %7, 4
  store i64 %8, ptr %6, align 8
  %9 = load ptr, ptr %4, align 8
  %10 = call noundef zeroext i1 @_ZN10FileReader4readEPvm(ptr noundef nonnull align 8 dereferenceable(16) %5, ptr noundef %9, i64 noundef 4)
  ret i1 %10
}

; Function Attrs: mustprogress nounwind uwtable
define hidden noundef zeroext i1 @_ZN9DwarfFile21MarkedDwarfFileReader12set_positionEl(ptr noundef nonnull align 8 dereferenceable(40) %0, i64 noundef %1) unnamed_addr #1 align 2 {
  %3 = alloca i1, align 1
  %4 = alloca ptr, align 8
  %5 = alloca i64, align 8
  store ptr %0, ptr %4, align 8
  store i64 %1, ptr %5, align 8
  %6 = load ptr, ptr %4, align 8
  %7 = load i64, ptr %5, align 8
  %8 = icmp slt i64 %7, 0
  br i1 %8, label %9, label %10

9:                                                ; preds = %2
  store i1 false, ptr %3, align 1
  br label %15

10:                                               ; preds = %2
  %11 = load i64, ptr %5, align 8
  %12 = getelementptr inbounds %"class.DwarfFile::MarkedDwarfFileReader", ptr %6, i32 0, i32 1
  store i64 %11, ptr %12, align 8
  %13 = load i64, ptr %5, align 8
  %14 = call noundef zeroext i1 @_ZN10FileReader12set_positionEl(ptr noundef nonnull align 8 dereferenceable(16) %6, i64 noundef %13)
  store i1 %14, ptr %3, align 1
  br label %15

15:                                               ; preds = %10, %9
  %16 = load i1, ptr %3, align 1
  ret i1 %16
}

; Function Attrs: mustprogress nounwind uwtable
define hidden noundef zeroext i1 @_ZN9DwarfFile15CompilationUnit11read_headerEv(ptr noundef nonnull align 8 dereferenceable(72) %0) #1 align 2 {
  %2 = alloca i1, align 1
  %3 = alloca ptr, align 8
  %4 = alloca %struct.Elf64_Shdr, align 8
  store ptr %0, ptr %3, align 8
  %5 = load ptr, ptr %3, align 8
  %6 = getelementptr inbounds %"class.DwarfFile::CompilationUnit", ptr %5, i32 0, i32 0
  %7 = load ptr, ptr %6, align 8
  %8 = call noundef zeroext i1 @_ZNK7ElfFile19read_section_headerEPKcR10Elf64_Shdr(ptr noundef nonnull align 8 dereferenceable(144) %7, ptr noundef @.str.7, ptr noundef nonnull align 8 dereferenceable(64) %4)
  br i1 %8, label %10, label %9

9:                                                ; preds = %1
  store i1 false, ptr %2, align 1
  br label %71

10:                                               ; preds = %1
  %11 = getelementptr inbounds %"class.DwarfFile::CompilationUnit", ptr %5, i32 0, i32 1
  %12 = getelementptr inbounds %struct.Elf64_Shdr, ptr %4, i32 0, i32 4
  %13 = load i64, ptr %12, align 8
  %14 = getelementptr inbounds %"class.DwarfFile::CompilationUnit", ptr %5, i32 0, i32 3
  %15 = load i32, ptr %14, align 8
  %16 = zext i32 %15 to i64
  %17 = add i64 %13, %16
  %18 = call noundef zeroext i1 @_ZN9DwarfFile21MarkedDwarfFileReader12set_positionEl(ptr noundef nonnull align 8 dereferenceable(40) %11, i64 noundef %17)
  br i1 %18, label %20, label %19

19:                                               ; preds = %10
  store i1 false, ptr %2, align 1
  br label %71

20:                                               ; preds = %10
  %21 = getelementptr inbounds %"class.DwarfFile::CompilationUnit", ptr %5, i32 0, i32 1
  %22 = getelementptr inbounds %"class.DwarfFile::CompilationUnit", ptr %5, i32 0, i32 2
  %23 = getelementptr inbounds %"struct.DwarfFile::CompilationUnit::CompilationUnitHeader", ptr %22, i32 0, i32 0
  %24 = call noundef zeroext i1 @_ZN9DwarfFile21MarkedDwarfFileReader10read_dwordEPj(ptr noundef nonnull align 8 dereferenceable(40) %21, ptr noundef %23)
  br i1 %24, label %25, label %30

25:                                               ; preds = %20
  %26 = getelementptr inbounds %"class.DwarfFile::CompilationUnit", ptr %5, i32 0, i32 2
  %27 = getelementptr inbounds %"struct.DwarfFile::CompilationUnit::CompilationUnitHeader", ptr %26, i32 0, i32 0
  %28 = load i32, ptr %27, align 8
  %29 = icmp eq i32 %28, -1
  br i1 %29, label %30, label %31

30:                                               ; preds = %25, %20
  store i1 false, ptr %2, align 1
  br label %71

31:                                               ; preds = %25
  %32 = getelementptr inbounds %"class.DwarfFile::CompilationUnit", ptr %5, i32 0, i32 1
  %33 = getelementptr inbounds %"class.DwarfFile::CompilationUnit", ptr %5, i32 0, i32 2
  %34 = getelementptr inbounds %"struct.DwarfFile::CompilationUnit::CompilationUnitHeader", ptr %33, i32 0, i32 1
  %35 = call noundef zeroext i1 @_ZN9DwarfFile21MarkedDwarfFileReader9read_wordEPt(ptr noundef nonnull align 8 dereferenceable(40) %32, ptr noundef %34)
  br i1 %35, label %36, label %42

36:                                               ; preds = %31
  %37 = getelementptr inbounds %"class.DwarfFile::CompilationUnit", ptr %5, i32 0, i32 2
  %38 = getelementptr inbounds %"struct.DwarfFile::CompilationUnit::CompilationUnitHeader", ptr %37, i32 0, i32 1
  %39 = load i16, ptr %38, align 4
  %40 = zext i16 %39 to i32
  %41 = icmp ne i32 %40, 4
  br i1 %41, label %42, label %43

42:                                               ; preds = %36, %31
  store i1 false, ptr %2, align 1
  br label %71

43:                                               ; preds = %36
  %44 = getelementptr inbounds %"class.DwarfFile::CompilationUnit", ptr %5, i32 0, i32 1
  %45 = getelementptr inbounds %"class.DwarfFile::CompilationUnit", ptr %5, i32 0, i32 2
  %46 = getelementptr inbounds %"struct.DwarfFile::CompilationUnit::CompilationUnitHeader", ptr %45, i32 0, i32 2
  %47 = call noundef zeroext i1 @_ZN9DwarfFile21MarkedDwarfFileReader10read_dwordEPj(ptr noundef nonnull align 8 dereferenceable(40) %44, ptr noundef %46)
  br i1 %47, label %49, label %48

48:                                               ; preds = %43
  store i1 false, ptr %2, align 1
  br label %71

49:                                               ; preds = %43
  %50 = getelementptr inbounds %"class.DwarfFile::CompilationUnit", ptr %5, i32 0, i32 1
  %51 = getelementptr inbounds %"class.DwarfFile::CompilationUnit", ptr %5, i32 0, i32 2
  %52 = getelementptr inbounds %"struct.DwarfFile::CompilationUnit::CompilationUnitHeader", ptr %51, i32 0, i32 3
  %53 = call noundef zeroext i1 @_ZN9DwarfFile21MarkedDwarfFileReader9read_byteEPv(ptr noundef nonnull align 8 dereferenceable(40) %50, ptr noundef %52)
  br i1 %53, label %54, label %60

54:                                               ; preds = %49
  %55 = getelementptr inbounds %"class.DwarfFile::CompilationUnit", ptr %5, i32 0, i32 2
  %56 = getelementptr inbounds %"struct.DwarfFile::CompilationUnit::CompilationUnitHeader", ptr %55, i32 0, i32 3
  %57 = load i8, ptr %56, align 4
  %58 = zext i8 %57 to i32
  %59 = icmp ne i32 %58, 8
  br i1 %59, label %60, label %61

60:                                               ; preds = %54, %49
  store i1 false, ptr %2, align 1
  br label %71

61:                                               ; preds = %54
  %62 = getelementptr inbounds %"class.DwarfFile::CompilationUnit", ptr %5, i32 0, i32 1
  %63 = getelementptr inbounds %"class.DwarfFile::CompilationUnit", ptr %5, i32 0, i32 1
  %64 = call noundef i64 @_ZNK9DwarfFile21MarkedDwarfFileReader12get_positionEv(ptr noundef nonnull align 8 dereferenceable(40) %63)
  %65 = getelementptr inbounds %"class.DwarfFile::CompilationUnit", ptr %5, i32 0, i32 2
  %66 = getelementptr inbounds %"struct.DwarfFile::CompilationUnit::CompilationUnitHeader", ptr %65, i32 0, i32 0
  %67 = load i32, ptr %66, align 8
  %68 = zext i32 %67 to i64
  %69 = add nsw i64 %64, %68
  %70 = add nsw i64 %69, 4
  call void @_ZN9DwarfFile21MarkedDwarfFileReader11set_max_posEl(ptr noundef nonnull align 8 dereferenceable(40) %62, i64 noundef %70)
  store i1 true, ptr %2, align 1
  br label %71

71:                                               ; preds = %61, %60, %48, %42, %30, %19, %9
  %72 = load i1, ptr %2, align 1
  ret i1 %72
}