; Function Attrs: mustprogress nounwind uwtable
define hidden noundef zeroext i1 @_ZN9DwarfFile15CompilationUnit11read_headerEv(ptr nocapture noundef nonnull align 8 dereferenceable(72) %0) local_unnamed_addr #0 align 2 {
  %2 = alloca %struct.Elf64_Shdr, align 8
  %3 = load ptr, ptr %0, align 8
  %4 = call noundef zeroext i1 @_ZNK7ElfFile19read_section_headerEPKcR10Elf64_Shdr(ptr noundef nonnull align 8 dereferenceable(144) %3, ptr noundef nonnull @.str.7, ptr noundef nonnull align 8 dereferenceable(64) %2)
  br i1 %4, label %5, label %_ZN9DwarfFile21MarkedDwarfFileReader12set_positionEl.exit.thread

5:                                                ; preds = %1
  %6 = getelementptr inbounds i8, ptr %2, i64 24
  %7 = load i64, ptr %6, align 8
  %8 = getelementptr inbounds i8, ptr %0, i64 64
  %9 = load i32, ptr %8, align 8
  %10 = zext i32 %9 to i64
  %11 = add i64 %7, %10
  %12 = icmp slt i64 %11, 0
  br i1 %12, label %_ZN9DwarfFile21MarkedDwarfFileReader12set_positionEl.exit.thread, label %_ZN9DwarfFile21MarkedDwarfFileReader12set_positionEl.exit

_ZN9DwarfFile21MarkedDwarfFileReader12set_positionEl.exit: ; preds = %5
  %13 = getelementptr inbounds i8, ptr %0, i64 32
  store i64 %11, ptr %13, align 8
  %14 = getelementptr inbounds i8, ptr %0, i64 16
  %15 = load ptr, ptr %14, align 8
  %16 = tail call i32 @fseek(ptr noundef %15, i64 noundef %11, i32 noundef 0)
  %17 = icmp eq i32 %16, 0
  br i1 %17, label %18, label %_ZN9DwarfFile21MarkedDwarfFileReader12set_positionEl.exit.thread

18:                                               ; preds = %_ZN9DwarfFile21MarkedDwarfFileReader12set_positionEl.exit
  %19 = getelementptr inbounds i8, ptr %0, i64 48
  %20 = load i64, ptr %13, align 8
  %21 = add nsw i64 %20, 4
  store i64 %21, ptr %13, align 8
  %22 = load ptr, ptr %14, align 8
  %23 = tail call i64 @fread(ptr noundef nonnull %19, i64 noundef 4, i64 noundef 1, ptr noundef %22)
  %24 = icmp ne i64 %23, 1
  %25 = load i32, ptr %19, align 8
  %26 = icmp eq i32 %25, -1
  %or.cond = select i1 %24, i1 true, i1 %26
  br i1 %or.cond, label %_ZN9DwarfFile21MarkedDwarfFileReader12set_positionEl.exit.thread, label %27

27:                                               ; preds = %18
  %28 = getelementptr inbounds i8, ptr %0, i64 52
  %29 = load i64, ptr %13, align 8
  %30 = add nsw i64 %29, 2
  store i64 %30, ptr %13, align 8
  %31 = load ptr, ptr %14, align 8
  %32 = tail call i64 @fread(ptr noundef nonnull %28, i64 noundef 2, i64 noundef 1, ptr noundef %31)
  %33 = icmp eq i64 %32, 1
  %34 = load i16, ptr %28, align 4
  %.not = icmp eq i16 %34, 4
  %or.cond5 = select i1 %33, i1 %.not, i1 false
  br i1 %or.cond5, label %35, label %_ZN9DwarfFile21MarkedDwarfFileReader12set_positionEl.exit.thread

35:                                               ; preds = %27
  %36 = getelementptr inbounds i8, ptr %0, i64 56
  %37 = load i64, ptr %13, align 8
  %38 = add nsw i64 %37, 4
  store i64 %38, ptr %13, align 8
  %39 = load ptr, ptr %14, align 8
  %40 = tail call i64 @fread(ptr noundef nonnull %36, i64 noundef 4, i64 noundef 1, ptr noundef %39)
  %41 = icmp eq i64 %40, 1
  br i1 %41, label %42, label %_ZN9DwarfFile21MarkedDwarfFileReader12set_positionEl.exit.thread

42:                                               ; preds = %35
  %43 = getelementptr inbounds i8, ptr %0, i64 60
  %44 = load i64, ptr %13, align 8
  %45 = add nsw i64 %44, 1
  store i64 %45, ptr %13, align 8
  %46 = load ptr, ptr %14, align 8
  %47 = tail call i64 @fread(ptr noundef nonnull %43, i64 noundef 1, i64 noundef 1, ptr noundef %46)
  %48 = icmp eq i64 %47, 1
  %49 = load i8, ptr %43, align 4
  %.not2 = icmp eq i8 %49, 8
  %or.cond6 = select i1 %48, i1 %.not2, i1 false
  br i1 %or.cond6, label %50, label %_ZN9DwarfFile21MarkedDwarfFileReader12set_positionEl.exit.thread

50:                                               ; preds = %42
  %51 = load i64, ptr %13, align 8
  %52 = load i32, ptr %19, align 8
  %53 = zext i32 %52 to i64
  %54 = add i64 %51, 4
  %55 = add i64 %54, %53
  %56 = getelementptr inbounds i8, ptr %0, i64 40
  store i64 %55, ptr %56, align 8
  br label %_ZN9DwarfFile21MarkedDwarfFileReader12set_positionEl.exit.thread

_ZN9DwarfFile21MarkedDwarfFileReader12set_positionEl.exit.thread: ; preds = %5, %42, %35, %27, %18, %_ZN9DwarfFile21MarkedDwarfFileReader12set_positionEl.exit, %1, %50
  %.0 = phi i1 [ true, %50 ], [ false, %1 ], [ false, %_ZN9DwarfFile21MarkedDwarfFileReader12set_positionEl.exit ], [ false, %18 ], [ false, %27 ], [ false, %35 ], [ false, %42 ], [ false, %5 ]
  ret i1 %.0
}